target datalayout = "e-m:e-p270:32:32-p271:32:32-p272:64:64-i64:64-i128:128-f80:128-n8:16:32:64-S128"
target triple = "x86_64-pc-linux-gnu"

%"struct.faiss::InvertedLists::ScopedCodes" = type { ptr, ptr, i64 }
%"struct.faiss::InvertedLists::ScopedIds" = type { ptr, ptr, i64 }
%"struct.faiss::(anonymous namespace)::CodeArrayIterator" = type { %"struct.faiss::InvertedListsIterator", i64, i64, %"struct.faiss::InvertedLists::ScopedCodes", %"struct.faiss::InvertedLists::ScopedIds", i64 }
%"struct.faiss::InvertedListsIterator" = type { ptr }

; Function Attrs: mustprogress nounwind uwtable
define void @_ZN5faiss21InvertedListsIteratorD2Ev(ptr noundef nonnull align 8 dereferenceable(8) %0) unnamed_addr #1 align 2 {
  %2 = alloca ptr, align 8
  store ptr %0, ptr %2, align 8, !tbaa !31
  ret void
}

; Function Attrs: mustprogress nounwind uwtable
define linkonce_odr void @_ZN5faiss13InvertedLists11ScopedCodesD2Ev(ptr noundef nonnull align 8 dereferenceable(24) %0) unnamed_addr #1 comdat align 2 personality ptr @__gxx_personality_v0 {
  %2 = alloca ptr, align 8
  store ptr %0, ptr %2, align 8, !tbaa !78
  %3 = load ptr, ptr %2, align 8
  %4 = getelementptr inbounds nuw %"struct.faiss::InvertedLists::ScopedCodes", ptr %3, i32 0, i32 0
  %5 = load ptr, ptr %4, align 8, !tbaa !80
  %6 = getelementptr inbounds nuw %"struct.faiss::InvertedLists::ScopedCodes", ptr %3, i32 0, i32 2
  %7 = load i64, ptr %6, align 8, !tbaa !83
  %8 = getelementptr inbounds nuw %"struct.faiss::InvertedLists::ScopedCodes", ptr %3, i32 0, i32 1
  %9 = load ptr, ptr %8, align 8, !tbaa !82
  %10 = load ptr, ptr %5, align 8, !tbaa !17
  %11 = getelementptr inbounds ptr, ptr %10, i64 5
  %12 = load ptr, ptr %11, align 8
  invoke void %12(ptr noundef nonnull align 8 dereferenceable(25) %5, i64 noundef %7, ptr noundef %9)
          to label %13 unwind label %14

13:                                               ; preds = %1
  ret void

14:                                               ; preds = %1
  %15 = landingpad { ptr, i32 }
          catch ptr null
  %16 = extractvalue { ptr, i32 } %15, 0
  call void @__clang_call_terminate(ptr %16) #19
  unreachable
}

; Function Attrs: mustprogress nounwind uwtable
define linkonce_odr void @_ZN5faiss13InvertedLists9ScopedIdsD2Ev(ptr noundef nonnull align 8 dereferenceable(24) %0) unnamed_addr #1 comdat align 2 personality ptr @__gxx_personality_v0 {
  %2 = alloca ptr, align 8
  store ptr %0, ptr %2, align 8, !tbaa !72
  %3 = load ptr, ptr %2, align 8
  %4 = getelementptr inbounds nuw %"struct.faiss::InvertedLists::ScopedIds", ptr %3, i32 0, i32 0
  %5 = load ptr, ptr %4, align 8, !tbaa !74
  %6 = getelementptr inbounds nuw %"struct.faiss::InvertedLists::ScopedIds", ptr %3, i32 0, i32 2
  %7 = load i64, ptr %6, align 8, !tbaa !77
  %8 = getelementptr inbounds nuw %"struct.faiss::InvertedLists::ScopedIds", ptr %3, i32 0, i32 1
  %9 = load ptr, ptr %8, align 8, !tbaa !76
  %10 = load ptr, ptr %5, align 8, !tbaa !17
  %11 = getelementptr inbounds ptr, ptr %10, i64 6
  %12 = load ptr, ptr %11, align 8
  invoke void %12(ptr noundef nonnull align 8 dereferenceable(25) %5, i64 noundef %7, ptr noundef %9)
          to label %13 unwind label %14

13:                                               ; preds = %1
  ret void

14:                                               ; preds = %1
  %15 = landingpad { ptr, i32 }
          catch ptr null
  %16 = extractvalue { ptr, i32 } %15, 0
  call void @__clang_call_terminate(ptr %16) #19
  unreachable
}

; Function Attrs: inlinehint mustprogress nounwind uwtable
define internal void @_ZN5faiss12_GLOBAL__N_117CodeArrayIteratorD2Ev(ptr noundef nonnull align 8 dereferenceable(80) %0) unnamed_addr #0 align 2 {
  %2 = alloca ptr, align 8
  store ptr %0, ptr %2, align 8, !tbaa !173
  %3 = load ptr, ptr %2, align 8
  store ptr getelementptr inbounds inrange(-16, 40) ({ [7 x ptr] }, ptr @_ZTVN5faiss12_GLOBAL__N_117CodeArrayIteratorE, i32 0, i32 0, i32 2), ptr %3, align 8, !tbaa !17
  %4 = getelementptr inbounds nuw %"struct.faiss::(anonymous namespace)::CodeArrayIterator", ptr %3, i32 0, i32 4
  call void @_ZN5faiss13InvertedLists9ScopedIdsD2Ev(ptr noundef nonnull align 8 dereferenceable(24) %4) #6
  %5 = getelementptr inbounds nuw %"struct.faiss::(anonymous namespace)::CodeArrayIterator", ptr %3, i32 0, i32 3
  call void @_ZN5faiss13InvertedLists11ScopedCodesD2Ev(ptr noundef nonnull align 8 dereferenceable(24) %5) #6
  call void @_ZN5faiss21InvertedListsIteratorD2Ev(ptr noundef nonnull align 8 dereferenceable(8) %3) #6
  ret void
}